target datalayout = "e-m:e-p270:32:32-p271:32:32-p272:64:64-i64:64-i128:128-f80:128-n8:16:32:64-S128"
target triple = "x86_64-pc-linux-gnu"

%struct.anon.324 = type { i8 }
%struct.anon.436 = type { i8 }
%struct.hb_object_header_t = type { %struct.hb_reference_count_t, %struct.hb_atomic_int_t, %struct.hb_atomic_ptr_t }
%struct.hb_reference_count_t = type { %struct.hb_atomic_int_t }
%struct.hb_atomic_ptr_t = type { ptr }
%struct.hb_atomic_int_t = type { i32 }
%"struct.OT::IntType.139" = type { %struct.BEInt.140 }
%struct.BEInt.140 = type { [2 x i8] }
%"struct.OT::HBGlyphID16" = type { %"struct.OT::IntType.139" }
%struct.hb_hashmap_t = type { %struct.hb_object_header_t, i32, i32, i32, i32, i32, ptr }
%"struct.hb_hashmap_t<unsigned int, unsigned int, true>::item_t" = type { i32, i32, i32 }
%"struct.OT::ClassDef" = type { %union.anon.230 }
%union.anon.230 = type { %"struct.OT::ClassDefFormat2_4" }
%"struct.OT::ClassDefFormat2_4" = type { %"struct.OT::IntType.139", %"struct.OT::SortedArrayOf.232" }
%"struct.OT::SortedArrayOf.232" = type { %"struct.OT::ArrayOf.233" }
%"struct.OT::ArrayOf.233" = type { %"struct.OT::IntType.139", [1 x %"struct.OT::Layout::Common::RangeRecord"] }
%"struct.OT::Layout::Common::RangeRecord" = type { %"struct.OT::HBGlyphID16", %"struct.OT::HBGlyphID16", %"struct.OT::IntType.139" }

@_ZL8hb_deref = internal constant %struct.anon.324 zeroinitializer, align 1
@_ZL7hb_hash = internal constant %struct.anon.436 zeroinitializer, align 1

; Function Attrs: mustprogress nounwind uwtable
define internal noundef nonnull align 4 dereferenceable(4) ptr @"_ZNK3$_4clIRKjEEDTclsr3stdE7forwardIT_Efp_EEOS3_"(ptr noundef nonnull align 1 dereferenceable(1) %0, ptr noundef nonnull align 4 dereferenceable(4) %1) #3 align 2 {
  %3 = alloca ptr, align 8
  %4 = alloca ptr, align 8
  store ptr %0, ptr %3, align 8
  store ptr %1, ptr %4, align 8
  %5 = load ptr, ptr %4, align 8
  ret ptr %5
}

; Function Attrs: mustprogress nounwind uwtable
define linkonce_odr hidden noundef zeroext i16 @_ZNK5BEIntItLi2EEcvtEv(ptr noundef nonnull align 1 dereferenceable(2) %0) #3 comdat align 2 {
  %2 = alloca ptr, align 8
  store ptr %0, ptr %2, align 8
  %3 = load ptr, ptr %2, align 8
  %4 = getelementptr inbounds %struct.BEInt.140, ptr %3, i32 0, i32 0
  %5 = getelementptr inbounds [2 x i8], ptr %4, i64 0, i64 0
  %6 = load i8, ptr %5, align 1
  %7 = zext i8 %6 to i32
  %8 = shl i32 %7, 8
  %9 = getelementptr inbounds %struct.BEInt.140, ptr %3, i32 0, i32 0
  %10 = getelementptr inbounds [2 x i8], ptr %9, i64 0, i64 1
  %11 = load i8, ptr %10, align 1
  %12 = zext i8 %11 to i32
  %13 = add nsw i32 %8, %12
  %14 = trunc i32 %13 to i16
  ret i16 %14
}

; Function Attrs: mustprogress nounwind uwtable
define linkonce_odr hidden noundef zeroext i1 @_ZNK12hb_hashmap_tIjjLb1EE6item_t7is_realEv(ptr noundef nonnull align 4 dereferenceable(12) %0) #3 comdat align 2 {
  %2 = alloca ptr, align 8
  store ptr %0, ptr %2, align 8
  %3 = load ptr, ptr %2, align 8
  %4 = getelementptr inbounds %"struct.hb_hashmap_t<unsigned int, unsigned int, true>::item_t", ptr %3, i32 0, i32 1
  %5 = load i32, ptr %4, align 4
  %6 = and i32 %5, 1
  %7 = icmp ne i32 %6, 0
  ret i1 %7
}

; Function Attrs: mustprogress nounwind uwtable
define linkonce_odr hidden noundef zeroext i1 @_ZNK12hb_hashmap_tIjjLb1EE6item_teqERKj(ptr noundef nonnull align 4 dereferenceable(12) %0, ptr noundef nonnull align 4 dereferenceable(4) %1) #3 comdat align 2 {
  %3 = alloca ptr, align 8
  %4 = alloca ptr, align 8
  store ptr %0, ptr %3, align 8
  store ptr %1, ptr %4, align 8
  %5 = load ptr, ptr %3, align 8
  %6 = getelementptr inbounds %"struct.hb_hashmap_t<unsigned int, unsigned int, true>::item_t", ptr %5, i32 0, i32 0
  %7 = call noundef nonnull align 4 dereferenceable(4) ptr @"_ZNK3$_4clIRKjEEDTclsr3stdE7forwardIT_Efp_EEOS3_"(ptr noundef nonnull align 1 dereferenceable(1) @_ZL8hb_deref, ptr noundef nonnull align 4 dereferenceable(4) %6)
  %8 = load i32, ptr %7, align 4
  %9 = load ptr, ptr %4, align 8
  %10 = call noundef nonnull align 4 dereferenceable(4) ptr @"_ZNK3$_4clIRKjEEDTclsr3stdE7forwardIT_Efp_EEOS3_"(ptr noundef nonnull align 1 dereferenceable(1) @_ZL8hb_deref, ptr noundef nonnull align 4 dereferenceable(4) %9)
  %11 = load i32, ptr %10, align 4
  %12 = icmp eq i32 %8, %11
  ret i1 %12
}

; Function Attrs: mustprogress nounwind uwtable
define linkonce_odr hidden noundef zeroext i1 @_ZNK12hb_hashmap_tIjjLb1EE6item_t7is_usedEv(ptr noundef nonnull align 4 dereferenceable(12) %0) #3 comdat align 2 {
  %2 = alloca ptr, align 8
  store ptr %0, ptr %2, align 8
  %3 = load ptr, ptr %2, align 8
  %4 = getelementptr inbounds %"struct.hb_hashmap_t<unsigned int, unsigned int, true>::item_t", ptr %3, i32 0, i32 1
  %5 = load i32, ptr %4, align 4
  %6 = lshr i32 %5, 1
  %7 = and i32 %6, 1
  %8 = icmp ne i32 %7, 0
  ret i1 %8
}

; Function Attrs: mustprogress nounwind uwtable
define internal noundef i32 @"_ZNK3$_34implIjTnPN12hb_enable_ifIXaasr3std11is_integralIT_EE5valuelestS2_Lm4EEvE4typeELPv0EEEN10_hb_head_tIjJDTmlcvjfp_Lj2654435761EEEE4typeERKS2_11hb_priorityILj1EE"(ptr noundef nonnull align 1 dereferenceable(1) %0, ptr noundef nonnull align 4 dereferenceable(4) %1) #3 align 2 {
  %3 = alloca ptr, align 8
  %4 = alloca ptr, align 8
  store ptr %0, ptr %3, align 8
  store ptr %1, ptr %4, align 8
  %5 = load ptr, ptr %4, align 8
  %6 = load i32, ptr %5, align 4
  %7 = mul i32 %6, -1640531535
  ret i32 %7
}

; Function Attrs: mustprogress nounwind uwtable
define linkonce_odr hidden noundef i32 @_ZNK2OT7IntTypeItLj2EEcvjEv(ptr noundef nonnull align 1 dereferenceable(2) %0) #3 comdat align 2 {
  %2 = alloca ptr, align 8
  store ptr %0, ptr %2, align 8
  %3 = load ptr, ptr %2, align 8
  %4 = getelementptr inbounds %"struct.OT::IntType.139", ptr %3, i32 0, i32 0
  %5 = call noundef zeroext i16 @_ZNK5BEIntItLi2EEcvtEv(ptr noundef nonnull align 1 dereferenceable(2) %4)
  %6 = zext i16 %5 to i32
  ret i32 %6
}

; Function Attrs: mustprogress uwtable
define linkonce_odr hidden noundef ptr @_ZNK12hb_hashmap_tIjjLb1EE10fetch_itemERKjj(ptr noundef nonnull align 8 dereferenceable(48) %0, ptr noundef nonnull align 4 dereferenceable(4) %1, i32 noundef %2) #0 comdat align 2 {
  %4 = alloca ptr, align 8
  %5 = alloca ptr, align 8
  %6 = alloca ptr, align 8
  %7 = alloca i32, align 4
  %8 = alloca i32, align 4
  %9 = alloca i32, align 4
  store ptr %0, ptr %5, align 8
  store ptr %1, ptr %6, align 8
  store i32 %2, ptr %7, align 4
  %10 = load ptr, ptr %5, align 8
  %11 = load i32, ptr %7, align 4
  %12 = and i32 %11, 1073741823
  store i32 %12, ptr %7, align 4
  %13 = load i32, ptr %7, align 4
  %14 = getelementptr inbounds %struct.hb_hashmap_t, ptr %10, i32 0, i32 4
  %15 = load i32, ptr %14, align 4
  %16 = urem i32 %13, %15
  store i32 %16, ptr %8, align 4
  store i32 0, ptr %9, align 4
  br label %17

17:                                               ; preds = %46, %3
  %18 = getelementptr inbounds %struct.hb_hashmap_t, ptr %10, i32 0, i32 6
  %19 = load ptr, ptr %18, align 8
  %20 = load i32, ptr %8, align 4
  %21 = zext i32 %20 to i64
  %22 = getelementptr inbounds %"struct.hb_hashmap_t<unsigned int, unsigned int, true>::item_t", ptr %19, i64 %21
  %23 = call noundef zeroext i1 @_ZNK12hb_hashmap_tIjjLb1EE6item_t7is_usedEv(ptr noundef nonnull align 4 dereferenceable(12) %22)
  br i1 %23, label %24, label %54

24:                                               ; preds = %17
  %25 = getelementptr inbounds %struct.hb_hashmap_t, ptr %10, i32 0, i32 6
  %26 = load ptr, ptr %25, align 8
  %27 = load i32, ptr %8, align 4
  %28 = zext i32 %27 to i64
  %29 = getelementptr inbounds %"struct.hb_hashmap_t<unsigned int, unsigned int, true>::item_t", ptr %26, i64 %28
  %30 = load ptr, ptr %6, align 8
  %31 = call noundef zeroext i1 @_ZNK12hb_hashmap_tIjjLb1EE6item_teqERKj(ptr noundef nonnull align 4 dereferenceable(12) %29, ptr noundef nonnull align 4 dereferenceable(4) %30)
  br i1 %31, label %32, label %46

32:                                               ; preds = %24
  %33 = getelementptr inbounds %struct.hb_hashmap_t, ptr %10, i32 0, i32 6
  %34 = load ptr, ptr %33, align 8
  %35 = load i32, ptr %8, align 4
  %36 = zext i32 %35 to i64
  %37 = getelementptr inbounds %"struct.hb_hashmap_t<unsigned int, unsigned int, true>::item_t", ptr %34, i64 %36
  %38 = call noundef zeroext i1 @_ZNK12hb_hashmap_tIjjLb1EE6item_t7is_realEv(ptr noundef nonnull align 4 dereferenceable(12) %37)
  br i1 %38, label %39, label %45

39:                                               ; preds = %32
  %40 = getelementptr inbounds %struct.hb_hashmap_t, ptr %10, i32 0, i32 6
  %41 = load ptr, ptr %40, align 8
  %42 = load i32, ptr %8, align 4
  %43 = zext i32 %42 to i64
  %44 = getelementptr inbounds %"struct.hb_hashmap_t<unsigned int, unsigned int, true>::item_t", ptr %41, i64 %43
  store ptr %44, ptr %4, align 8
  br label %55

45:                                               ; preds = %32
  store ptr null, ptr %4, align 8
  br label %55

46:                                               ; preds = %24
  %47 = load i32, ptr %8, align 4
  %48 = load i32, ptr %9, align 4
  %49 = add i32 %48, 1
  store i32 %49, ptr %9, align 4
  %50 = add i32 %47, %49
  %51 = getelementptr inbounds %struct.hb_hashmap_t, ptr %10, i32 0, i32 3
  %52 = load i32, ptr %51, align 8
  %53 = and i32 %50, %52
  store i32 %53, ptr %8, align 4
  br label %17, !llvm.loop !168

54:                                               ; preds = %17
  store ptr null, ptr %4, align 8
  br label %55

55:                                               ; preds = %54, %45, %39
  %56 = load ptr, ptr %4, align 8
  ret ptr %56
}

; Function Attrs: mustprogress uwtable
define internal noundef i32 @"_ZNK3$_3clIjEEN10_hb_head_tIjJDTcl4implfp_cv11hb_priorityILj16EE_EEEEE4typeERKT_"(ptr noundef nonnull align 1 dereferenceable(1) %0, ptr noundef nonnull align 4 dereferenceable(4) %1) #0 align 2 {
  %3 = alloca ptr, align 8
  %4 = alloca ptr, align 8
  store ptr %0, ptr %3, align 8
  store ptr %1, ptr %4, align 8
  %5 = load ptr, ptr %3, align 8
  %6 = load ptr, ptr %4, align 8
  %7 = call noundef i32 @"_ZNK3$_34implIjTnPN12hb_enable_ifIXaasr3std11is_integralIT_EE5valuelestS2_Lm4EEvE4typeELPv0EEEN10_hb_head_tIjJDTmlcvjfp_Lj2654435761EEEE4typeERKS2_11hb_priorityILj1EE"(ptr noundef nonnull align 1 dereferenceable(1) %5, ptr noundef nonnull align 4 dereferenceable(4) %6)
  ret i32 %7
}

; Function Attrs: mustprogress uwtable
define linkonce_odr hidden noundef zeroext i1 @_ZN12hb_hashmap_tIjjLb1EE3setIRbEEbRKjOT_b(ptr noundef nonnull align 8 dereferenceable(48) %0, ptr noundef nonnull align 4 dereferenceable(4) %1, ptr noundef nonnull align 1 dereferenceable(1) %2, i1 noundef zeroext %3) #0 comdat align 2 {
  %5 = alloca ptr, align 8
  %6 = alloca ptr, align 8
  %7 = alloca ptr, align 8
  %8 = alloca i8, align 1
  store ptr %0, ptr %5, align 8
  store ptr %1, ptr %6, align 8
  store ptr %2, ptr %7, align 8
  %9 = zext i1 %3 to i8
  store i8 %9, ptr %8, align 1
  %10 = load ptr, ptr %5, align 8
  %11 = load ptr, ptr %6, align 8
  %12 = load ptr, ptr %6, align 8
  %13 = call noundef i32 @"_ZNK3$_3clIjEEN10_hb_head_tIjJDTcl4implfp_cv11hb_priorityILj16EE_EEEEE4typeERKT_"(ptr noundef nonnull align 1 dereferenceable(1) @_ZL7hb_hash, ptr noundef nonnull align 4 dereferenceable(4) %12)
  %14 = load ptr, ptr %7, align 8
  %15 = load i8, ptr %8, align 1
  %16 = trunc i8 %15 to i1
  %17 = call noundef zeroext i1 @_ZN12hb_hashmap_tIjjLb1EE13set_with_hashIRKjRbEEbOT_jOT0_b(ptr noundef nonnull align 8 dereferenceable(48) %10, ptr noundef nonnull align 4 dereferenceable(4) %11, i32 noundef %13, ptr noundef nonnull align 1 dereferenceable(1) %14, i1 noundef zeroext %16)
  ret i1 %17
}

; Function Attrs: mustprogress uwtable
define linkonce_odr hidden noundef zeroext i1 @_ZNK2OT8ClassDef16intersects_classEPK8hb_set_tj(ptr noundef nonnull align 1 dereferenceable(10) %0, ptr noundef %1, i32 noundef %2) #0 comdat align 2 {
  %4 = alloca i1, align 1
  %5 = alloca ptr, align 8
  %6 = alloca ptr, align 8
  %7 = alloca i32, align 4
  store ptr %0, ptr %5, align 8
  store ptr %1, ptr %6, align 8
  store i32 %2, ptr %7, align 4
  %8 = load ptr, ptr %5, align 8
  %9 = getelementptr inbounds %"struct.OT::ClassDef", ptr %8, i32 0, i32 0
  %10 = call noundef i32 @_ZNK2OT7IntTypeItLj2EEcvjEv(ptr noundef nonnull align 1 dereferenceable(2) %9)
  switch i32 %10, label %23 [
    i32 1, label %11
    i32 2, label %17
  ]

11:                                               ; preds = %3
  %12 = getelementptr inbounds %"struct.OT::ClassDef", ptr %8, i32 0, i32 0
  %13 = load ptr, ptr %6, align 8
  %14 = load i32, ptr %7, align 4
  %15 = trunc i32 %14 to i16
  %16 = call noundef zeroext i1 @_ZNK2OT17ClassDefFormat1_3INS_6Layout10SmallTypesEE16intersects_classEPK8hb_set_tt(ptr noundef nonnull align 1 dereferenceable(8) %12, ptr noundef %13, i16 noundef zeroext %15)
  store i1 %16, ptr %4, align 1
  br label %24

17:                                               ; preds = %3
  %18 = getelementptr inbounds %"struct.OT::ClassDef", ptr %8, i32 0, i32 0
  %19 = load ptr, ptr %6, align 8
  %20 = load i32, ptr %7, align 4
  %21 = trunc i32 %20 to i16
  %22 = call noundef zeroext i1 @_ZNK2OT17ClassDefFormat2_4INS_6Layout10SmallTypesEE16intersects_classEPK8hb_set_tt(ptr noundef nonnull align 1 dereferenceable(10) %18, ptr noundef %19, i16 noundef zeroext %21)
  store i1 %22, ptr %4, align 1
  br label %24

23:                                               ; preds = %3
  store i1 false, ptr %4, align 1
  br label %24

24:                                               ; preds = %23, %17, %11
  %25 = load i1, ptr %4, align 1
  ret i1 %25
}

; Function Attrs: mustprogress uwtable
define linkonce_odr hidden noundef zeroext i1 @_ZNK12hb_hashmap_tIjjLb1EE3hasIjEEbRKjPPT_(ptr noundef nonnull align 8 dereferenceable(48) %0, ptr noundef nonnull align 4 dereferenceable(4) %1, ptr noundef %2) #0 comdat align 2 {
  %4 = alloca i1, align 1
  %5 = alloca ptr, align 8
  %6 = alloca ptr, align 8
  %7 = alloca ptr, align 8
  %8 = alloca ptr, align 8
  store ptr %0, ptr %5, align 8
  store ptr %1, ptr %6, align 8
  store ptr %2, ptr %7, align 8
  %9 = load ptr, ptr %5, align 8
  %10 = getelementptr inbounds %struct.hb_hashmap_t, ptr %9, i32 0, i32 6
  %11 = load ptr, ptr %10, align 8
  %12 = icmp ne ptr %11, null
  br i1 %12, label %14, label %13

13:                                               ; preds = %3
  store i1 false, ptr %4, align 1
  br label %30

14:                                               ; preds = %3
  %15 = load ptr, ptr %6, align 8
  %16 = load ptr, ptr %6, align 8
  %17 = call noundef i32 @"_ZNK3$_3clIjEEN10_hb_head_tIjJDTcl4implfp_cv11hb_priorityILj16EE_EEEEE4typeERKT_"(ptr noundef nonnull align 1 dereferenceable(1) @_ZL7hb_hash, ptr noundef nonnull align 4 dereferenceable(4) %16)
  %18 = call noundef ptr @_ZNK12hb_hashmap_tIjjLb1EE10fetch_itemERKjj(ptr noundef nonnull align 8 dereferenceable(48) %9, ptr noundef nonnull align 4 dereferenceable(4) %15, i32 noundef %17)
  store ptr %18, ptr %8, align 8
  %19 = load ptr, ptr %8, align 8
  %20 = icmp ne ptr %19, null
  br i1 %20, label %21, label %29

21:                                               ; preds = %14
  %22 = load ptr, ptr %7, align 8
  %23 = icmp ne ptr %22, null
  br i1 %23, label %24, label %28

24:                                               ; preds = %21
  %25 = load ptr, ptr %8, align 8
  %26 = getelementptr inbounds %"struct.hb_hashmap_t<unsigned int, unsigned int, true>::item_t", ptr %25, i32 0, i32 2
  %27 = load ptr, ptr %7, align 8
  store ptr %26, ptr %27, align 8
  br label %28

28:                                               ; preds = %24, %21
  store i1 true, ptr %4, align 1
  br label %30

29:                                               ; preds = %14
  store i1 false, ptr %4, align 1
  br label %30

30:                                               ; preds = %29, %28, %13
  %31 = load i1, ptr %4, align 1
  ret i1 %31
}

; Function Attrs: mustprogress uwtable
define internal noundef zeroext i1 @_ZN2OTL16intersects_classEPK8hb_set_tjPKvPv(ptr noundef %0, i32 noundef %1, ptr noundef %2, ptr noundef %3) #0 {
  %5 = alloca i1, align 1
  %6 = alloca ptr, align 8
  %7 = alloca i32, align 4
  %8 = alloca ptr, align 8
  %9 = alloca ptr, align 8
  %10 = alloca ptr, align 8
  %11 = alloca ptr, align 8
  %12 = alloca ptr, align 8
  %13 = alloca i8, align 1
  store ptr %0, ptr %6, align 8
  store i32 %1, ptr %7, align 4
  store ptr %2, ptr %8, align 8
  store ptr %3, ptr %9, align 8
  %14 = load ptr, ptr %8, align 8
  store ptr %14, ptr %10, align 8
  %15 = load ptr, ptr %9, align 8
  store ptr %15, ptr %11, align 8
  %16 = load ptr, ptr %11, align 8
  %17 = call noundef zeroext i1 @_ZNK12hb_hashmap_tIjjLb1EE3hasIjEEbRKjPPT_(ptr noundef nonnull align 8 dereferenceable(48) %16, ptr noundef nonnull align 4 dereferenceable(4) %7, ptr noundef %12)
  br i1 %17, label %18, label %22

18:                                               ; preds = %4
  %19 = load ptr, ptr %12, align 8
  %20 = load i32, ptr %19, align 4
  %21 = icmp ne i32 %20, 0
  store i1 %21, ptr %5, align 1
  br label %32

22:                                               ; preds = %4
  %23 = load ptr, ptr %10, align 8
  %24 = load ptr, ptr %6, align 8
  %25 = load i32, ptr %7, align 4
  %26 = call noundef zeroext i1 @_ZNK2OT8ClassDef16intersects_classEPK8hb_set_tj(ptr noundef nonnull align 1 dereferenceable(10) %23, ptr noundef %24, i32 noundef %25)
  %27 = zext i1 %26 to i8
  store i8 %27, ptr %13, align 1
  %28 = load ptr, ptr %11, align 8
  %29 = call noundef zeroext i1 @_ZN12hb_hashmap_tIjjLb1EE3setIRbEEbRKjOT_b(ptr noundef nonnull align 8 dereferenceable(48) %28, ptr noundef nonnull align 4 dereferenceable(4) %7, ptr noundef nonnull align 1 dereferenceable(1) %13, i1 noundef zeroext true)
  %30 = load i8, ptr %13, align 1
  %31 = trunc i8 %30 to i1
  store i1 %31, ptr %5, align 1
  br label %32

32:                                               ; preds = %22, %18
  %33 = load i1, ptr %5, align 1
  ret i1 %33
}