; Function Attrs: mustprogress uwtable
define internal noundef zeroext i1 @_ZN2OTL16intersects_classEPK8hb_set_tjPKvPv(ptr noundef %0, i32 noundef %1, ptr noundef %2, ptr noundef %3) #0 {
  %5 = alloca i32, align 4
  %6 = alloca i8, align 1
  store i32 %1, ptr %5, align 4
  %7 = getelementptr inbounds i8, ptr %3, i64 40
  %8 = load ptr, ptr %7, align 8
  %.not.i = icmp eq ptr %8, null
  br i1 %.not.i, label %.loopexit, label %9

9:                                                ; preds = %4
  %10 = mul i32 %1, 506952113
  %11 = and i32 %10, 1073741823
  %12 = getelementptr inbounds i8, ptr %3, i64 28
  %13 = load i32, ptr %12, align 4
  %14 = urem i32 %11, %13
  %15 = zext nneg i32 %14 to i64
  %16 = getelementptr inbounds %"struct.hb_hashmap_t<unsigned int, unsigned int, true>::item_t", ptr %8, i64 %15
  %17 = getelementptr inbounds i8, ptr %16, i64 4
  %18 = load i32, ptr %17, align 4
  %19 = and i32 %18, 2
  %.not16.i.i = icmp eq i32 %19, 0
  br i1 %.not16.i.i, label %.loopexit, label %.lr.ph.i.i

.lr.ph.i.i:                                       ; preds = %9
  %20 = getelementptr inbounds i8, ptr %3, i64 24
  %21 = load i32, ptr %20, align 8
  %22 = load i32, ptr %16, align 4
  %23 = icmp eq i32 %22, %1
  br i1 %23, label %._crit_edge.i, label %.lr.ph.i

24:                                               ; preds = %.lr.ph.i
  %25 = load i32, ptr %33, align 4
  %26 = icmp eq i32 %25, %1
  br i1 %26, label %._crit_edge.i, label %.lr.ph.i, !llvm.loop !183

._crit_edge.i:                                    ; preds = %24, %.lr.ph.i.i
  %.lcssa15.i = phi i32 [ %18, %.lr.ph.i.i ], [ %35, %24 ]
  %27 = phi i64 [ %15, %.lr.ph.i.i ], [ %32, %24 ]
  %28 = and i32 %.lcssa15.i, 1
  %.not12.i.i = icmp eq i32 %28, 0
  br i1 %.not12.i.i, label %.loopexit, label %37

.lr.ph.i:                                         ; preds = %.lr.ph.i.i, %24
  %.01017.i18.i = phi i32 [ %31, %24 ], [ %14, %.lr.ph.i.i ]
  %.018.i17.i = phi i32 [ %29, %24 ], [ 0, %.lr.ph.i.i ]
  %29 = add i32 %.018.i17.i, 1
  %30 = add i32 %29, %.01017.i18.i
  %31 = and i32 %30, %21
  %32 = zext i32 %31 to i64
  %33 = getelementptr inbounds %"struct.hb_hashmap_t<unsigned int, unsigned int, true>::item_t", ptr %8, i64 %32
  %34 = getelementptr inbounds i8, ptr %33, i64 4
  %35 = load i32, ptr %34, align 4
  %36 = and i32 %35, 2
  %.not.i.i = icmp eq i32 %36, 0
  br i1 %.not.i.i, label %.loopexit, label %24, !llvm.loop !183

37:                                               ; preds = %._crit_edge.i
  %38 = getelementptr inbounds %"struct.hb_hashmap_t<unsigned int, unsigned int, true>::item_t", ptr %8, i64 %27, i32 2
  %39 = load i32, ptr %38, align 4
  %40 = icmp ne i32 %39, 0
  br label %58

.loopexit:                                        ; preds = %.lr.ph.i, %4, %9, %._crit_edge.i
  %41 = load i8, ptr %2, align 1
  %42 = zext i8 %41 to i16
  %43 = shl nuw i16 %42, 8
  %44 = getelementptr inbounds i8, ptr %2, i64 1
  %45 = load i8, ptr %44, align 1
  %46 = zext i8 %45 to i16
  %trunc.i = or disjoint i16 %43, %46
  switch i16 %trunc.i, label %_ZNK2OT8ClassDef16intersects_classEPK8hb_set_tj.exit [
    i16 1, label %47
    i16 2, label %50
  ]

47:                                               ; preds = %.loopexit
  %48 = trunc i32 %1 to i16
  %49 = tail call noundef zeroext i1 @_ZNK2OT17ClassDefFormat1_3INS_6Layout10SmallTypesEE16intersects_classEPK8hb_set_tt(ptr noundef nonnull align 1 dereferenceable(8) %2, ptr noundef %0, i16 noundef zeroext %48)
  br label %_ZNK2OT8ClassDef16intersects_classEPK8hb_set_tj.exit

50:                                               ; preds = %.loopexit
  %51 = trunc i32 %1 to i16
  %52 = tail call noundef zeroext i1 @_ZNK2OT17ClassDefFormat2_4INS_6Layout10SmallTypesEE16intersects_classEPK8hb_set_tt(ptr noundef nonnull align 1 dereferenceable(10) %2, ptr noundef %0, i16 noundef zeroext %51)
  br label %_ZNK2OT8ClassDef16intersects_classEPK8hb_set_tj.exit

_ZNK2OT8ClassDef16intersects_classEPK8hb_set_tj.exit: ; preds = %.loopexit, %47, %50
  %.0.i7 = phi i1 [ %52, %50 ], [ %49, %47 ], [ false, %.loopexit ]
  %53 = zext i1 %.0.i7 to i8
  store i8 %53, ptr %6, align 1
  %54 = mul i32 %1, -1640531535
  %55 = call noundef zeroext i1 @_ZN12hb_hashmap_tIjjLb1EE13set_with_hashIRKjRbEEbOT_jOT0_b(ptr noundef nonnull align 8 dereferenceable(48) %3, ptr noundef nonnull align 4 dereferenceable(4) %5, i32 noundef %54, ptr noundef nonnull align 1 dereferenceable(1) %6, i1 noundef zeroext true)
  %56 = load i8, ptr %6, align 1
  %57 = trunc i8 %56 to i1
  br label %58

58:                                               ; preds = %_ZNK2OT8ClassDef16intersects_classEPK8hb_set_tj.exit, %37
  %.0 = phi i1 [ %40, %37 ], [ %57, %_ZNK2OT8ClassDef16intersects_classEPK8hb_set_tj.exit ]
  ret i1 %.0
}